ccopy_reg
_reconstructor
p1
(cDependency.PreCache
PreCacheManager
p2
c__builtin__
object
p3
NtRp4
(dp5
S'_header_cache'
p6
(dp7
sS'_version'
p8
F1.1000000000000001
sS'_protoc_cache'
p9
S'-1'
p10
sS'_ubrpcgen_cache'
p11
g10
sS'_cache_path'
p12
S'/home/liuyuan21/baidu/goodcoder/liuyuan21/.bcloud.cache/bcloud.pretreatment'
p13
sS'_mcy_cache'
p14
g10
sS'_cache'
p15
(dp16
sb.